target datalayout = "e-m:e-p270:32:32-p271:32:32-p272:64:64-i64:64-i128:128-f80:128-n8:16:32:64-S128"
target triple = "x86_64-pc-linux-gnu"

@H5_libinit_g = external global i8, align 1
@H5_libterm_g = external global i8, align 1
@.str = private unnamed_addr constant [97 x i8] c"generated/home/dtcxzyw/WorkSpace/Projects/compilers/llvm-opt-benchmark/bench/hdf5/hdf5/src/H5O.c\00", align 1
@H5E_FUNC_g = external global i64, align 8
@H5E_CANTINIT_g = external global i64, align 8
@.str.1 = private unnamed_addr constant [30 x i8] c"library initialization failed\00", align 1
@H5E_CANTSET_g = external global i64, align 8
@.str.2 = private unnamed_addr constant [22 x i8] c"can't set API context\00", align 1
@H5E_OHDR_g = external global i64, align 8
@H5E_ARGS_g = external global i64, align 8
@H5E_BADVALUE_g = external global i64, align 8
@H5E_BADTYPE_g = external global i64, align 8
@.str.21 = private unnamed_addr constant [28 x i8] c"invalid location identifier\00", align 1
@H5E_CANTGET_g = external global i64, align 8
@__func__.H5Otoken_to_str = private unnamed_addr constant [16 x i8] c"H5Otoken_to_str\00", align 1
@.str.89 = private unnamed_addr constant [22 x i8] c"invalid token pointer\00", align 1
@.str.90 = private unnamed_addr constant [29 x i8] c"invalid token string pointer\00", align 1
@.str.91 = private unnamed_addr constant [37 x i8] c"can't get underlying VOL object type\00", align 1
@H5E_CANTSERIALIZE_g = external global i64, align 8
@.str.92 = private unnamed_addr constant [34 x i8] c"object token serialization failed\00", align 1

; Function Attrs: nounwind uwtable
define i32 @H5Otoken_to_str(i64 noundef %0, ptr noundef %1, ptr noundef %2) #0 {
  %4 = alloca i64, align 8
  %5 = alloca ptr, align 8
  %6 = alloca ptr, align 8
  %7 = alloca ptr, align 8
  %8 = alloca i32, align 4
  %9 = alloca i32, align 4
  %10 = alloca i8, align 1
  %11 = alloca i8, align 1
  store i64 %0, ptr %4, align 8
  store ptr %1, ptr %5, align 8
  store ptr %2, ptr %6, align 8
  store i32 0, ptr %9, align 4
  store i8 0, ptr %10, align 1
  store i8 0, ptr %11, align 1
  %12 = load i8, ptr @H5_libinit_g, align 1
  %13 = trunc i8 %12 to i1
  br i1 %13, label %18, label %14

14:                                               ; preds = %3
  %15 = load i8, ptr @H5_libterm_g, align 1
  %16 = trunc i8 %15 to i1
  %17 = xor i1 %16, true
  br label %18

18:                                               ; preds = %14, %3
  %19 = phi i1 [ false, %3 ], [ %17, %14 ]
  %20 = xor i1 %19, true
  %21 = xor i1 %20, true
  %22 = zext i1 %21 to i32
  %23 = sext i32 %22 to i64
  %24 = icmp ne i64 %23, 0
  br i1 %24, label %25, label %49

25:                                               ; preds = %18
  %26 = call i32 @H5_init_library()
  %27 = icmp slt i32 %26, 0
  %28 = xor i1 %27, true
  %29 = xor i1 %28, true
  %30 = zext i1 %29 to i32
  %31 = sext i32 %30 to i64
  %32 = icmp ne i64 %31, 0
  br i1 %32, label %33, label %48

33:                                               ; preds = %25
  br label %34

34:                                               ; preds = %33
  br label %35

35:                                               ; preds = %34
  br label %36

36:                                               ; preds = %35
  %37 = load i64, ptr @H5E_FUNC_g, align 8
  %38 = load i64, ptr @H5E_CANTINIT_g, align 8
  %39 = call i32 (ptr, ptr, i32, i64, i64, ptr, ...) @H5E_printf_stack(ptr noundef @.str, ptr noundef @__func__.H5Otoken_to_str, i32 noundef 2248, i64 noundef %37, i64 noundef %38, ptr noundef @.str.1)
  br label %40

40:                                               ; preds = %36
  store i8 1, ptr %11, align 1
  %41 = load i8, ptr %11, align 1
  %42 = trunc i8 %41 to i1
  %43 = zext i1 %42 to i8
  store i8 %43, ptr %11, align 1
  br label %44

44:                                               ; preds = %40
  br label %45

45:                                               ; preds = %44
  store i32 -1, ptr %9, align 4
  br label %171

46:                                               ; No predecessors!
  br label %47

47:                                               ; preds = %46
  br label %48

48:                                               ; preds = %47, %25
  br label %49

49:                                               ; preds = %48, %18
  %50 = call i32 @H5CX_push()
  %51 = icmp slt i32 %50, 0
  %52 = xor i1 %51, true
  %53 = xor i1 %52, true
  %54 = zext i1 %53 to i32
  %55 = sext i32 %54 to i64
  %56 = icmp ne i64 %55, 0
  br i1 %56, label %57, label %72

57:                                               ; preds = %49
  br label %58

58:                                               ; preds = %57
  br label %59

59:                                               ; preds = %58
  br label %60

60:                                               ; preds = %59
  %61 = load i64, ptr @H5E_FUNC_g, align 8
  %62 = load i64, ptr @H5E_CANTSET_g, align 8
  %63 = call i32 (ptr, ptr, i32, i64, i64, ptr, ...) @H5E_printf_stack(ptr noundef @.str, ptr noundef @__func__.H5Otoken_to_str, i32 noundef 2248, i64 noundef %61, i64 noundef %62, ptr noundef @.str.2)
  br label %64

64:                                               ; preds = %60
  store i8 1, ptr %11, align 1
  %65 = load i8, ptr %11, align 1
  %66 = trunc i8 %65 to i1
  %67 = zext i1 %66 to i8
  store i8 %67, ptr %11, align 1
  br label %68

68:                                               ; preds = %64
  br label %69

69:                                               ; preds = %68
  store i32 -1, ptr %9, align 4
  br label %171

70:                                               ; No predecessors!
  br label %71

71:                                               ; preds = %70
  br label %73

72:                                               ; preds = %49
  store i8 1, ptr %10, align 1
  br label %73

73:                                               ; preds = %72, %71
  %74 = call i32 @H5E_clear_stack()
  %75 = load i64, ptr %4, align 8
  %76 = call ptr @H5VL_vol_object(i64 noundef %75)
  store ptr %76, ptr %7, align 8
  %77 = icmp eq ptr null, %76
  br i1 %77, label %78, label %93

78:                                               ; preds = %73
  br label %79

79:                                               ; preds = %78
  br label %80

80:                                               ; preds = %79
  br label %81

81:                                               ; preds = %80
  %82 = load i64, ptr @H5E_ARGS_g, align 8
  %83 = load i64, ptr @H5E_BADTYPE_g, align 8
  %84 = call i32 (ptr, ptr, i32, i64, i64, ptr, ...) @H5E_printf_stack(ptr noundef @.str, ptr noundef @__func__.H5Otoken_to_str, i32 noundef 2252, i64 noundef %82, i64 noundef %83, ptr noundef @.str.21)
  br label %85

85:                                               ; preds = %81
  store i8 1, ptr %11, align 1
  %86 = load i8, ptr %11, align 1
  %87 = trunc i8 %86 to i1
  %88 = zext i1 %87 to i8
  store i8 %88, ptr %11, align 1
  br label %89

89:                                               ; preds = %85
  br label %90

90:                                               ; preds = %89
  store i32 -1, ptr %9, align 4
  br label %171

91:                                               ; No predecessors!
  br label %92

92:                                               ; preds = %91
  br label %93

93:                                               ; preds = %92, %73
  %94 = load ptr, ptr %5, align 8
  %95 = icmp eq ptr null, %94
  br i1 %95, label %96, label %111

96:                                               ; preds = %93
  br label %97

97:                                               ; preds = %96
  br label %98

98:                                               ; preds = %97
  br label %99

99:                                               ; preds = %98
  %100 = load i64, ptr @H5E_ARGS_g, align 8
  %101 = load i64, ptr @H5E_BADVALUE_g, align 8
  %102 = call i32 (ptr, ptr, i32, i64, i64, ptr, ...) @H5E_printf_stack(ptr noundef @.str, ptr noundef @__func__.H5Otoken_to_str, i32 noundef 2254, i64 noundef %100, i64 noundef %101, ptr noundef @.str.89)
  br label %103

103:                                              ; preds = %99
  store i8 1, ptr %11, align 1
  %104 = load i8, ptr %11, align 1
  %105 = trunc i8 %104 to i1
  %106 = zext i1 %105 to i8
  store i8 %106, ptr %11, align 1
  br label %107

107:                                              ; preds = %103
  br label %108

108:                                              ; preds = %107
  store i32 -1, ptr %9, align 4
  br label %171

109:                                              ; No predecessors!
  br label %110

110:                                              ; preds = %109
  br label %111

111:                                              ; preds = %110, %93
  %112 = load ptr, ptr %6, align 8
  %113 = icmp eq ptr null, %112
  br i1 %113, label %114, label %129

114:                                              ; preds = %111
  br label %115

115:                                              ; preds = %114
  br label %116

116:                                              ; preds = %115
  br label %117

117:                                              ; preds = %116
  %118 = load i64, ptr @H5E_ARGS_g, align 8
  %119 = load i64, ptr @H5E_BADVALUE_g, align 8
  %120 = call i32 (ptr, ptr, i32, i64, i64, ptr, ...) @H5E_printf_stack(ptr noundef @.str, ptr noundef @__func__.H5Otoken_to_str, i32 noundef 2256, i64 noundef %118, i64 noundef %119, ptr noundef @.str.90)
  br label %121

121:                                              ; preds = %117
  store i8 1, ptr %11, align 1
  %122 = load i8, ptr %11, align 1
  %123 = trunc i8 %122 to i1
  %124 = zext i1 %123 to i8
  store i8 %124, ptr %11, align 1
  br label %125

125:                                              ; preds = %121
  br label %126

126:                                              ; preds = %125
  store i32 -1, ptr %9, align 4
  br label %171

127:                                              ; No predecessors!
  br label %128

128:                                              ; preds = %127
  br label %129

129:                                              ; preds = %128, %111
  %130 = load i64, ptr %4, align 8
  %131 = call i32 @H5I_get_type(i64 noundef %130)
  store i32 %131, ptr %8, align 4
  %132 = icmp slt i32 %131, 0
  br i1 %132, label %133, label %148

133:                                              ; preds = %129
  br label %134

134:                                              ; preds = %133
  br label %135

135:                                              ; preds = %134
  br label %136

136:                                              ; preds = %135
  %137 = load i64, ptr @H5E_OHDR_g, align 8
  %138 = load i64, ptr @H5E_CANTGET_g, align 8
  %139 = call i32 (ptr, ptr, i32, i64, i64, ptr, ...) @H5E_printf_stack(ptr noundef @.str, ptr noundef @__func__.H5Otoken_to_str, i32 noundef 2260, i64 noundef %137, i64 noundef %138, ptr noundef @.str.91)
  br label %140

140:                                              ; preds = %136
  store i8 1, ptr %11, align 1
  %141 = load i8, ptr %11, align 1
  %142 = trunc i8 %141 to i1
  %143 = zext i1 %142 to i8
  store i8 %143, ptr %11, align 1
  br label %144

144:                                              ; preds = %140
  br label %145

145:                                              ; preds = %144
  store i32 -1, ptr %9, align 4
  br label %171

146:                                              ; No predecessors!
  br label %147

147:                                              ; preds = %146
  br label %148

148:                                              ; preds = %147, %129
  %149 = load ptr, ptr %7, align 8
  %150 = load i32, ptr %8, align 4
  %151 = load ptr, ptr %5, align 8
  %152 = load ptr, ptr %6, align 8
  %153 = call i32 @H5VL_token_to_str(ptr noundef %149, i32 noundef %150, ptr noundef %151, ptr noundef %152)
  %154 = icmp slt i32 %153, 0
  br i1 %154, label %155, label %170

155:                                              ; preds = %148
  br label %156

156:                                              ; preds = %155
  br label %157

157:                                              ; preds = %156
  br label %158

158:                                              ; preds = %157
  %159 = load i64, ptr @H5E_OHDR_g, align 8
  %160 = load i64, ptr @H5E_CANTSERIALIZE_g, align 8
  %161 = call i32 (ptr, ptr, i32, i64, i64, ptr, ...) @H5E_printf_stack(ptr noundef @.str, ptr noundef @__func__.H5Otoken_to_str, i32 noundef 2264, i64 noundef %159, i64 noundef %160, ptr noundef @.str.92)
  br label %162

162:                                              ; preds = %158
  store i8 1, ptr %11, align 1
  %163 = load i8, ptr %11, align 1
  %164 = trunc i8 %163 to i1
  %165 = zext i1 %164 to i8
  store i8 %165, ptr %11, align 1
  br label %166

166:                                              ; preds = %162
  br label %167

167:                                              ; preds = %166
  store i32 -1, ptr %9, align 4
  br label %171

168:                                              ; No predecessors!
  br label %169

169:                                              ; preds = %168
  br label %170

170:                                              ; preds = %169, %148
  br label %171

171:                                              ; preds = %170, %167, %145, %126, %108, %90, %69, %45
  %172 = load i8, ptr %10, align 1
  %173 = trunc i8 %172 to i1
  %174 = xor i1 %173, true
  %175 = xor i1 %174, true
  %176 = zext i1 %175 to i32
  %177 = sext i32 %176 to i64
  %178 = icmp ne i64 %177, 0
  br i1 %178, label %179, label %181

179:                                              ; preds = %171
  %180 = call i32 @H5CX_pop(i1 noundef zeroext true)
  store i8 0, ptr %10, align 1
  br label %181

181:                                              ; preds = %179, %171
  %182 = load i8, ptr %11, align 1
  %183 = trunc i8 %182 to i1
  %184 = xor i1 %183, true
  %185 = xor i1 %184, true
  %186 = zext i1 %185 to i32
  %187 = sext i32 %186 to i64
  %188 = icmp ne i64 %187, 0
  br i1 %188, label %189, label %191

189:                                              ; preds = %181
  %190 = call i32 @H5E_dump_api_stack()
  br label %191

191:                                              ; preds = %189, %181
  %192 = load i32, ptr %9, align 4
  ret i32 %192
}