; Function Attrs: nounwind uwtable
define range(i32 -1, 1) i32 @H5Otoken_to_str(i64 noundef %0, ptr noundef %1, ptr noundef %2) local_unnamed_addr #0 {
  %4 = load i8, ptr @H5_libinit_g, align 1
  %5 = trunc i8 %4 to i1
  %6 = load i8, ptr @H5_libterm_g, align 1
  %7 = trunc i8 %6 to i1
  %8 = select i1 %5, i1 true, i1 %7
  br i1 %8, label %16, label %9

9:                                                ; preds = %3
  %10 = tail call i32 @H5_init_library() #4
  %11 = icmp slt i32 %10, 0
  br i1 %11, label %12, label %16

12:                                               ; preds = %9
  %13 = load i64, ptr @H5E_FUNC_g, align 8
  %14 = load i64, ptr @H5E_CANTINIT_g, align 8
  %15 = tail call i32 (ptr, ptr, i32, i64, i64, ptr, ...) @H5E_printf_stack(ptr noundef nonnull @.str, ptr noundef nonnull @__func__.H5Otoken_to_str, i32 noundef 2248, i64 noundef %13, i64 noundef %14, ptr noundef nonnull @.str.1) #4
  br label %.thread31

16:                                               ; preds = %9, %3
  %17 = tail call i32 @H5CX_push() #4
  %18 = icmp slt i32 %17, 0
  br i1 %18, label %19, label %23

19:                                               ; preds = %16
  %20 = load i64, ptr @H5E_FUNC_g, align 8
  %21 = load i64, ptr @H5E_CANTSET_g, align 8
  %22 = tail call i32 (ptr, ptr, i32, i64, i64, ptr, ...) @H5E_printf_stack(ptr noundef nonnull @.str, ptr noundef nonnull @__func__.H5Otoken_to_str, i32 noundef 2248, i64 noundef %20, i64 noundef %21, ptr noundef nonnull @.str.2) #4
  br label %.thread31

23:                                               ; preds = %16
  %24 = tail call i32 @H5E_clear_stack() #4
  %25 = tail call ptr @H5VL_vol_object(i64 noundef %0) #4
  %26 = icmp eq ptr %25, null
  br i1 %26, label %27, label %31

27:                                               ; preds = %23
  %28 = load i64, ptr @H5E_ARGS_g, align 8
  %29 = load i64, ptr @H5E_BADTYPE_g, align 8
  %30 = tail call i32 (ptr, ptr, i32, i64, i64, ptr, ...) @H5E_printf_stack(ptr noundef nonnull @.str, ptr noundef nonnull @__func__.H5Otoken_to_str, i32 noundef 2252, i64 noundef %28, i64 noundef %29, ptr noundef nonnull @.str.21) #4
  br label %.thread37

31:                                               ; preds = %23
  %32 = icmp eq ptr %1, null
  br i1 %32, label %33, label %37

33:                                               ; preds = %31
  %34 = load i64, ptr @H5E_ARGS_g, align 8
  %35 = load i64, ptr @H5E_BADVALUE_g, align 8
  %36 = tail call i32 (ptr, ptr, i32, i64, i64, ptr, ...) @H5E_printf_stack(ptr noundef nonnull @.str, ptr noundef nonnull @__func__.H5Otoken_to_str, i32 noundef 2254, i64 noundef %34, i64 noundef %35, ptr noundef nonnull @.str.89) #4
  br label %.thread37

37:                                               ; preds = %31
  %38 = icmp eq ptr %2, null
  br i1 %38, label %39, label %43

39:                                               ; preds = %37
  %40 = load i64, ptr @H5E_ARGS_g, align 8
  %41 = load i64, ptr @H5E_BADVALUE_g, align 8
  %42 = tail call i32 (ptr, ptr, i32, i64, i64, ptr, ...) @H5E_printf_stack(ptr noundef nonnull @.str, ptr noundef nonnull @__func__.H5Otoken_to_str, i32 noundef 2256, i64 noundef %40, i64 noundef %41, ptr noundef nonnull @.str.90) #4
  br label %.thread37

43:                                               ; preds = %37
  %44 = tail call i32 @H5I_get_type(i64 noundef %0) #4
  %45 = icmp slt i32 %44, 0
  br i1 %45, label %46, label %50

46:                                               ; preds = %43
  %47 = load i64, ptr @H5E_OHDR_g, align 8
  %48 = load i64, ptr @H5E_CANTGET_g, align 8
  %49 = tail call i32 (ptr, ptr, i32, i64, i64, ptr, ...) @H5E_printf_stack(ptr noundef nonnull @.str, ptr noundef nonnull @__func__.H5Otoken_to_str, i32 noundef 2260, i64 noundef %47, i64 noundef %48, ptr noundef nonnull @.str.91) #4
  br label %.thread37

50:                                               ; preds = %43
  %51 = tail call i32 @H5VL_token_to_str(ptr noundef nonnull %25, i32 noundef %44, ptr noundef nonnull %1, ptr noundef nonnull %2) #4
  %52 = icmp slt i32 %51, 0
  br i1 %52, label %53, label %58

53:                                               ; preds = %50
  %54 = load i64, ptr @H5E_OHDR_g, align 8
  %55 = load i64, ptr @H5E_CANTSERIALIZE_g, align 8
  %56 = tail call i32 (ptr, ptr, i32, i64, i64, ptr, ...) @H5E_printf_stack(ptr noundef nonnull @.str, ptr noundef nonnull @__func__.H5Otoken_to_str, i32 noundef 2264, i64 noundef %54, i64 noundef %55, ptr noundef nonnull @.str.92) #4
  br label %.thread37

.thread37:                                        ; preds = %53, %46, %39, %33, %27
  %57 = tail call i32 @H5CX_pop(i1 noundef zeroext true) #4
  br label %.thread31

58:                                               ; preds = %50
  %59 = tail call i32 @H5CX_pop(i1 noundef zeroext true) #4
  br label %61

.thread31:                                        ; preds = %19, %12, %.thread37
  %60 = tail call i32 @H5E_dump_api_stack() #4
  br label %61

61:                                               ; preds = %58, %.thread31
  %.0182634 = phi i32 [ -1, %.thread31 ], [ 0, %58 ]
  ret i32 %.0182634
}